; Function Attrs: mustprogress uwtable
define internal fastcc void @_ZN9grpc_core12_GLOBAL__N_120TCPConnectHandshaker12FinishLockedEN4absl12lts_202407226StatusE(ptr noundef nonnull align 16 dereferenceable(280) %0, ptr noundef nonnull captures(none) %1) unnamed_addr #3 align 2 personality ptr @__gxx_personality_v0 {
  %3 = alloca %"class.absl::lts_20240722::AnyInvocable.75", align 16
  %4 = alloca %"class.absl::lts_20240722::Status", align 8
  %5 = getelementptr inbounds nuw i8, ptr %0, i64 80
  %6 = load ptr, ptr %5, align 16, !tbaa !53
  %.not = icmp eq ptr %6, null
  br i1 %.not, label %9, label %7

7:                                                ; preds = %2
  %8 = getelementptr inbounds nuw i8, ptr %0, i64 88
  tail call void @_Z40grpc_polling_entity_del_from_pollset_setP19grpc_polling_entityP16grpc_pollset_set(ptr noundef nonnull %8, ptr noundef nonnull %6)
  br label %9

9:                                                ; preds = %7, %2
  %10 = getelementptr inbounds nuw i8, ptr %0, i64 104
  %11 = load ptr, ptr %10, align 8, !tbaa !54
  %12 = getelementptr inbounds nuw i8, ptr %0, i64 48
  %13 = getelementptr inbounds nuw i8, ptr %0, i64 64
  %14 = load ptr, ptr %13, align 16, !tbaa !51
  call void %14(i1 noundef zeroext false, ptr noundef nonnull align 16 dereferenceable(32) %12, ptr noundef nonnull align 16 dereferenceable(32) %3) #25
  %15 = load ptr, ptr %13, align 16, !tbaa !51
  %16 = getelementptr inbounds nuw i8, ptr %3, i64 16
  store ptr %15, ptr %16, align 16, !tbaa !51
  %17 = getelementptr inbounds nuw i8, ptr %0, i64 72
  %18 = load ptr, ptr %17, align 8, !tbaa !52
  %19 = getelementptr inbounds nuw i8, ptr %3, i64 24
  store ptr %18, ptr %19, align 8, !tbaa !52
  store ptr @_ZN4absl12lts_2024072222internal_any_invocable12EmptyManagerENS1_14FunctionToCallEPNS1_15TypeErasedStateES4_, ptr %13, align 16, !tbaa !51
  store ptr null, ptr %17, align 8, !tbaa !52
  %20 = load i64, ptr %1, align 8, !tbaa !63
  store i64 %20, ptr %4, align 8, !tbaa !63
  store i64 55, ptr %1, align 8, !tbaa !63
  invoke void @_ZN9grpc_core10Handshaker21InvokeOnHandshakeDoneEPNS_14HandshakerArgsEN4absl12lts_2024072212AnyInvocableIFvNS4_6StatusEEEES6_(ptr noundef %11, ptr noundef nonnull %3, ptr noundef nonnull %4)
          to label %21 unwind label %30

21:                                               ; preds = %9
  %22 = load i64, ptr %4, align 8, !tbaa !63
  %23 = and i64 %22, 1
  %.not.i.i = icmp eq i64 %23, 0
  br i1 %.not.i.i, label %24, label %_ZN4absl12lts_202407226StatusD2Ev.exit

24:                                               ; preds = %21
  %25 = inttoptr i64 %22 to ptr
  invoke void @_ZNK4absl12lts_2024072215status_internal9StatusRep5UnrefEv(ptr noundef nonnull align 8 dereferenceable(48) %25)
          to label %_ZN4absl12lts_202407226StatusD2Ev.exit unwind label %26

26:                                               ; preds = %24
  %27 = landingpad { ptr, i32 }
          catch ptr null
  %28 = extractvalue { ptr, i32 } %27, 0
  call void @__clang_call_terminate(ptr %28) #28
  unreachable

_ZN4absl12lts_202407226StatusD2Ev.exit:           ; preds = %21, %24
  %29 = load ptr, ptr %16, align 16, !tbaa !51
  call void %29(i1 noundef zeroext true, ptr noundef nonnull align 16 dereferenceable(32) %3, ptr noundef nonnull align 16 dereferenceable(32) %3) #25
  ret void

30:                                               ; preds = %9
  %31 = landingpad { ptr, i32 }
          cleanup
  call void @_ZN4absl12lts_202407226StatusD2Ev(ptr noundef nonnull align 8 dereferenceable(8) %4) #25
  %32 = load ptr, ptr %16, align 16, !tbaa !51
  call void %32(i1 noundef zeroext true, ptr noundef nonnull align 16 dereferenceable(32) %3, ptr noundef nonnull align 16 dereferenceable(32) %3) #25
  resume { ptr, i32 } %31
}